target datalayout = "e-m:e-p270:32:32-p271:32:32-p272:64:64-i64:64-i128:128-f80:128-n8:16:32:64-S128"
target triple = "x86_64-pc-linux-gnu"

%struct.AddressSpace = type { %struct.rcu_head, ptr, ptr, ptr, i32, i32, ptr, %union.anon, %union.anon.0, i64, i64, %struct.QemuMutex, %struct.anon }
%struct.rcu_head = type { ptr, ptr }
%union.anon = type { %struct.QTailQLink }
%struct.QTailQLink = type { ptr, ptr }
%union.anon.0 = type { %struct.QTailQLink }
%struct.QemuMutex = type { %union.pthread_mutex_t, i8 }
%union.pthread_mutex_t = type { %struct.__pthread_mutex_s }
%struct.__pthread_mutex_s = type { i32, i32, i32, i32, i32, i16, i16, %struct.__pthread_internal_list }
%struct.__pthread_internal_list = type { ptr, ptr }
%struct.anon = type { ptr }
%struct.VirtIOPCIProxy = type { %struct.PCIDevice, %struct.MemoryRegion, %union.anon.7, %struct.MemoryRegion, %struct.MemoryRegion, %struct.AddressSpace, %struct.AddressSpace, i32, i32, i32, i32, i32, i32, i8, i8, i32, i16, i32, i32, i32, i32, [2 x i32], [1024 x %struct.VirtIOPCIQueue], ptr, i32, %struct.VirtioBusState }
%struct.PCIDevice = type { %struct.DeviceState, i8, i8, ptr, ptr, ptr, ptr, ptr, i32, %struct.PCIReqIDCache, [64 x i8], [7 x %struct.PCIIORegion], %struct.AddressSpace, %struct.MemoryRegion, %struct.MemoryRegion, ptr, ptr, [3 x ptr], i8, i8, i32, i8, i32, ptr, ptr, ptr, ptr, ptr, ptr, %struct.MemoryRegion, %struct.MemoryRegion, %struct.MemoryRegion, ptr, i8, i32, i8, %struct.PCIExpressDevice, ptr, ptr, i32, i8, %struct.MemoryRegion, i32, ptr, ptr, ptr, ptr, i16, %struct.DOECap, ptr, i32, i32 }
%struct.DeviceState = type { %struct.Object, ptr, ptr, i8, i8, i64, i32, i8, ptr, %struct.NamedGPIOListHead, %struct.NamedClockListHead, %struct.BusStateHead, i32, i32, i32, %struct.ResettableState, ptr, %struct.MemReentrancyGuard }
%struct.Object = type { ptr, ptr, ptr, i32, ptr }
%struct.NamedGPIOListHead = type { ptr }
%struct.NamedClockListHead = type { ptr }
%struct.BusStateHead = type { ptr }
%struct.ResettableState = type { i32, i8, i8 }
%struct.MemReentrancyGuard = type { i8 }
%struct.PCIReqIDCache = type { ptr, i32 }
%struct.PCIIORegion = type { i64, i64, i8, ptr, ptr }
%struct.PCIExpressDevice = type { i8, i8, i8, i16, %struct.PCIEAERLog, i16, i16, i16, %struct.PCIESriovPF, %struct.PCIESriovVF }
%struct.PCIEAERLog = type { i16, i16, ptr }
%struct.PCIESriovPF = type { i16, [7 x i8], ptr, ptr }
%struct.PCIESriovVF = type { ptr, i16 }
%struct.DOECap = type { ptr, i16, %struct.anon.4, %struct.anon.5, %struct.anon.6, ptr, ptr, i32, i32, i32, ptr, i16, i32 }
%struct.anon.4 = type { i8, i16 }
%struct.anon.5 = type { i8, i8, i8 }
%struct.anon.6 = type { i8, i8, i8, i8 }
%union.anon.7 = type { %struct.anon.8 }
%struct.anon.8 = type { %struct.VirtIOPCIRegion, %struct.VirtIOPCIRegion, %struct.VirtIOPCIRegion, %struct.VirtIOPCIRegion, %struct.VirtIOPCIRegion }
%struct.VirtIOPCIRegion = type { %struct.MemoryRegion, i32, i32, i32 }
%struct.MemoryRegion = type { %struct.Object, i8, i8, i8, i8, i8, i8, i8, i8, i8, i8, ptr, ptr, ptr, ptr, ptr, ptr, i32, i128, i64, ptr, i64, i8, i8, i8, i8, ptr, i64, i32, %union.anon.1, %union.anon.2, %union.anon.3, ptr, i32, ptr, ptr, i8 }
%union.anon.1 = type { %struct.QTailQLink }
%union.anon.2 = type { %struct.QTailQLink }
%union.anon.3 = type { %struct.QTailQLink }
%struct.VirtIOPCIQueue = type { i16, i8, i8, [2 x i32], [2 x i32], [2 x i32] }
%struct.VirtioBusState = type { %struct.BusState, i8, i32 }
%struct.BusState = type { %struct.Object, ptr, ptr, ptr, i32, i8, i8, i32, %union.BusChildHead, %struct.BusStateEntry, %struct.ResettableState }
%union.BusChildHead = type { %struct.QTailQLink }
%struct.BusStateEntry = type { ptr, ptr }

@.str = private unnamed_addr constant [11 x i8] c"virtio-pci\00", align 1
@.str.15 = private unnamed_addr constant [109 x i8] c"/home/dtcxzyw/WorkSpace/Projects/compilers/llvm-opt-benchmark/bench/qemu/qemu/include/hw/virtio/virtio-pci.h\00", align 1
@__func__.VIRTIO_PCI = private unnamed_addr constant [11 x i8] c"VIRTIO_PCI\00", align 1
@.str.17 = private unnamed_addr constant [11 x i8] c"virtio-bus\00", align 1
@.str.20 = private unnamed_addr constant [109 x i8] c"/home/dtcxzyw/WorkSpace/Projects/compilers/llvm-opt-benchmark/bench/qemu/qemu/include/hw/virtio/virtio-bus.h\00", align 1
@__func__.VIRTIO_BUS = private unnamed_addr constant [11 x i8] c"VIRTIO_BUS\00", align 1

; Function Attrs: inlinehint nounwind sspstrong uwtable
define internal ptr @VIRTIO_BUS(ptr noundef %0) #4 {
  %2 = alloca ptr, align 8
  store ptr %0, ptr %2, align 8
  %3 = load ptr, ptr %2, align 8
  %4 = call ptr @object_dynamic_cast_assert(ptr noundef %3, ptr noundef @.str.17, ptr noundef @.str.20, i32 noundef 36, ptr noundef @__func__.VIRTIO_BUS)
  ret ptr %4
}

; Function Attrs: inlinehint nounwind sspstrong uwtable
define internal ptr @VIRTIO_PCI(ptr noundef %0) #4 {
  %2 = alloca ptr, align 8
  store ptr %0, ptr %2, align 8
  %3 = load ptr, ptr %2, align 8
  %4 = call ptr @object_dynamic_cast_assert(ptr noundef %3, ptr noundef @.str, ptr noundef @.str.15, i32 noundef 107, ptr noundef @__func__.VIRTIO_PCI)
  ret ptr %4
}

; Function Attrs: nounwind sspstrong uwtable
define internal void @virtio_pci_reset(ptr noundef %0) #0 {
  %2 = alloca ptr, align 8
  %3 = alloca ptr, align 8
  %4 = alloca ptr, align 8
  %5 = alloca i32, align 4
  store ptr %0, ptr %2, align 8
  call void @llvm.lifetime.start.p0(i64 8, ptr %3) #13
  %6 = load ptr, ptr %2, align 8
  %7 = call ptr @VIRTIO_PCI(ptr noundef %6)
  store ptr %7, ptr %3, align 8
  call void @llvm.lifetime.start.p0(i64 8, ptr %4) #13
  %8 = load ptr, ptr %3, align 8
  %9 = getelementptr inbounds nuw %struct.VirtIOPCIProxy, ptr %8, i32 0, i32 25
  %10 = call ptr @VIRTIO_BUS(ptr noundef %9)
  store ptr %10, ptr %4, align 8
  call void @llvm.lifetime.start.p0(i64 4, ptr %5) #13
  store i32 0, ptr %5, align 4, !annotation !4
  %11 = load ptr, ptr %4, align 8
  call void @virtio_bus_reset(ptr noundef %11)
  %12 = load ptr, ptr %3, align 8
  %13 = getelementptr inbounds nuw %struct.VirtIOPCIProxy, ptr %12, i32 0, i32 0
  call void @msix_unuse_all_vectors(ptr noundef %13)
  store i32 0, ptr %5, align 4
  br label %14

14:                                               ; preds = %78, %1
  %15 = load i32, ptr %5, align 4
  %16 = icmp slt i32 %15, 1024
  br i1 %16, label %17, label %81

17:                                               ; preds = %14
  %18 = load ptr, ptr %3, align 8
  %19 = getelementptr inbounds nuw %struct.VirtIOPCIProxy, ptr %18, i32 0, i32 22
  %20 = load i32, ptr %5, align 4
  %21 = sext i32 %20 to i64
  %22 = getelementptr inbounds [1024 x %struct.VirtIOPCIQueue], ptr %19, i64 0, i64 %21
  %23 = getelementptr inbounds nuw %struct.VirtIOPCIQueue, ptr %22, i32 0, i32 1
  store i8 0, ptr %23, align 2
  %24 = load ptr, ptr %3, align 8
  %25 = getelementptr inbounds nuw %struct.VirtIOPCIProxy, ptr %24, i32 0, i32 22
  %26 = load i32, ptr %5, align 4
  %27 = sext i32 %26 to i64
  %28 = getelementptr inbounds [1024 x %struct.VirtIOPCIQueue], ptr %25, i64 0, i64 %27
  %29 = getelementptr inbounds nuw %struct.VirtIOPCIQueue, ptr %28, i32 0, i32 2
  store i8 0, ptr %29, align 1
  %30 = load ptr, ptr %3, align 8
  %31 = getelementptr inbounds nuw %struct.VirtIOPCIProxy, ptr %30, i32 0, i32 22
  %32 = load i32, ptr %5, align 4
  %33 = sext i32 %32 to i64
  %34 = getelementptr inbounds [1024 x %struct.VirtIOPCIQueue], ptr %31, i64 0, i64 %33
  %35 = getelementptr inbounds nuw %struct.VirtIOPCIQueue, ptr %34, i32 0, i32 0
  store i16 0, ptr %35, align 4
  %36 = load ptr, ptr %3, align 8
  %37 = getelementptr inbounds nuw %struct.VirtIOPCIProxy, ptr %36, i32 0, i32 22
  %38 = load i32, ptr %5, align 4
  %39 = sext i32 %38 to i64
  %40 = getelementptr inbounds [1024 x %struct.VirtIOPCIQueue], ptr %37, i64 0, i64 %39
  %41 = getelementptr inbounds nuw %struct.VirtIOPCIQueue, ptr %40, i32 0, i32 3
  %42 = getelementptr inbounds [2 x i32], ptr %41, i64 0, i64 1
  store i32 0, ptr %42, align 4
  %43 = load ptr, ptr %3, align 8
  %44 = getelementptr inbounds nuw %struct.VirtIOPCIProxy, ptr %43, i32 0, i32 22
  %45 = load i32, ptr %5, align 4
  %46 = sext i32 %45 to i64
  %47 = getelementptr inbounds [1024 x %struct.VirtIOPCIQueue], ptr %44, i64 0, i64 %46
  %48 = getelementptr inbounds nuw %struct.VirtIOPCIQueue, ptr %47, i32 0, i32 3
  %49 = getelementptr inbounds [2 x i32], ptr %48, i64 0, i64 0
  store i32 0, ptr %49, align 4
  %50 = load ptr, ptr %3, align 8
  %51 = getelementptr inbounds nuw %struct.VirtIOPCIProxy, ptr %50, i32 0, i32 22
  %52 = load i32, ptr %5, align 4
  %53 = sext i32 %52 to i64
  %54 = getelementptr inbounds [1024 x %struct.VirtIOPCIQueue], ptr %51, i64 0, i64 %53
  %55 = getelementptr inbounds nuw %struct.VirtIOPCIQueue, ptr %54, i32 0, i32 4
  %56 = getelementptr inbounds [2 x i32], ptr %55, i64 0, i64 1
  store i32 0, ptr %56, align 4
  %57 = load ptr, ptr %3, align 8
  %58 = getelementptr inbounds nuw %struct.VirtIOPCIProxy, ptr %57, i32 0, i32 22
  %59 = load i32, ptr %5, align 4
  %60 = sext i32 %59 to i64
  %61 = getelementptr inbounds [1024 x %struct.VirtIOPCIQueue], ptr %58, i64 0, i64 %60
  %62 = getelementptr inbounds nuw %struct.VirtIOPCIQueue, ptr %61, i32 0, i32 4
  %63 = getelementptr inbounds [2 x i32], ptr %62, i64 0, i64 0
  store i32 0, ptr %63, align 4
  %64 = load ptr, ptr %3, align 8
  %65 = getelementptr inbounds nuw %struct.VirtIOPCIProxy, ptr %64, i32 0, i32 22
  %66 = load i32, ptr %5, align 4
  %67 = sext i32 %66 to i64
  %68 = getelementptr inbounds [1024 x %struct.VirtIOPCIQueue], ptr %65, i64 0, i64 %67
  %69 = getelementptr inbounds nuw %struct.VirtIOPCIQueue, ptr %68, i32 0, i32 5
  %70 = getelementptr inbounds [2 x i32], ptr %69, i64 0, i64 1
  store i32 0, ptr %70, align 4
  %71 = load ptr, ptr %3, align 8
  %72 = getelementptr inbounds nuw %struct.VirtIOPCIProxy, ptr %71, i32 0, i32 22
  %73 = load i32, ptr %5, align 4
  %74 = sext i32 %73 to i64
  %75 = getelementptr inbounds [1024 x %struct.VirtIOPCIQueue], ptr %72, i64 0, i64 %74
  %76 = getelementptr inbounds nuw %struct.VirtIOPCIQueue, ptr %75, i32 0, i32 5
  %77 = getelementptr inbounds [2 x i32], ptr %76, i64 0, i64 0
  store i32 0, ptr %77, align 4
  br label %78

78:                                               ; preds = %17
  %79 = load i32, ptr %5, align 4
  %80 = add i32 %79, 1
  store i32 %80, ptr %5, align 4
  br label %14, !llvm.loop !21

81:                                               ; preds = %14
  call void @llvm.lifetime.end.p0(i64 4, ptr %5) #13
  call void @llvm.lifetime.end.p0(i64 8, ptr %4) #13
  call void @llvm.lifetime.end.p0(i64 8, ptr %3) #13
  ret void
}