; Function Attrs: nounwind sspstrong uwtable
define internal fastcc void @virtio_pci_reset(ptr noundef %0) unnamed_addr #0 {
  %2 = tail call ptr @object_dynamic_cast_assert(ptr noundef %0, ptr noundef nonnull @.str, ptr noundef nonnull @.str.15, i32 noundef 107, ptr noundef nonnull @__func__.VIRTIO_PCI) #15
  %3 = getelementptr inbounds nuw i8, ptr %2, i64 34080
  %4 = tail call ptr @object_dynamic_cast_assert(ptr noundef nonnull %3, ptr noundef nonnull @__const.virtio_pci_bus_new.virtio_bus_name, ptr noundef nonnull @.str.20, i32 noundef 36, ptr noundef nonnull @__func__.VIRTIO_BUS) #15
  tail call void @virtio_bus_reset(ptr noundef %4) #15
  tail call void @msix_unuse_all_vectors(ptr noundef %2) #15
  %5 = getelementptr inbounds nuw i8, ptr %2, i64 5388
  tail call void @llvm.memset.p0.i64(ptr noundef nonnull align 4 dereferenceable(28672) %5, i8 0, i64 28672, i1 false)
  ret void
}